target datalayout = "e-m:e-p270:32:32-p271:32:32-p272:64:64-i64:64-i128:128-f80:128-n8:16:32:64-S128"
target triple = "x86_64-pc-linux-gnu"

%"class.llvm::StringRef" = type { ptr, i64 }
%"class.llvm::DwarfFile" = type { ptr, %"class.llvm::BumpPtrAllocatorImpl", %"class.llvm::DIEAbbrevSet", %"class.llvm::SmallVector.6", %"class.llvm::DwarfStringPool", %"class.llvm::SmallVector.12", ptr, ptr, %"class.llvm::DenseMap", %"class.llvm::DenseMap.17", %"class.llvm::DenseMap.20", %"class.llvm::DenseMap.23", %"class.llvm::DenseMap.26" }
%"class.llvm::BumpPtrAllocatorImpl" = type { ptr, ptr, %"class.llvm::SmallVector", %"class.llvm::SmallVector.1", i64, i64 }
%"class.llvm::SmallVector" = type { %"class.llvm::SmallVectorImpl", %"struct.llvm::SmallVectorStorage" }
%"class.llvm::SmallVectorImpl" = type { %"class.llvm::SmallVectorTemplateBase" }
%"class.llvm::SmallVectorTemplateBase" = type { %"class.llvm::SmallVectorTemplateCommon" }
%"class.llvm::SmallVectorTemplateCommon" = type { %"class.llvm::SmallVectorBase" }
%"class.llvm::SmallVectorBase" = type { ptr, i32, i32 }
%"struct.llvm::SmallVectorStorage" = type { [32 x i8] }
%"class.llvm::SmallVector.1" = type { %"class.llvm::SmallVectorImpl.2" }
%"class.llvm::SmallVectorImpl.2" = type { %"class.llvm::SmallVectorTemplateBase.3" }
%"class.llvm::SmallVectorTemplateBase.3" = type { %"class.llvm::SmallVectorTemplateCommon.4" }
%"class.llvm::SmallVectorTemplateCommon.4" = type { %"class.llvm::SmallVectorBase" }
%"class.llvm::DIEAbbrevSet" = type { ptr, %"class.llvm::FoldingSet", %"class.std::vector" }
%"class.llvm::FoldingSet" = type { %"class.llvm::FoldingSetImpl" }
%"class.llvm::FoldingSetImpl" = type { %"class.llvm::FoldingSetBase" }
%"class.llvm::FoldingSetBase" = type { ptr, i32, i32 }
%"class.std::vector" = type { %"struct.std::_Vector_base" }
%"struct.std::_Vector_base" = type { %"struct.std::_Vector_base<llvm::DIEAbbrev *, std::allocator<llvm::DIEAbbrev *>>::_Vector_impl" }
%"struct.std::_Vector_base<llvm::DIEAbbrev *, std::allocator<llvm::DIEAbbrev *>>::_Vector_impl" = type { %"struct.std::_Vector_base<llvm::DIEAbbrev *, std::allocator<llvm::DIEAbbrev *>>::_Vector_impl_data" }
%"struct.std::_Vector_base<llvm::DIEAbbrev *, std::allocator<llvm::DIEAbbrev *>>::_Vector_impl_data" = type { ptr, ptr, ptr }
%"class.llvm::SmallVector.6" = type { %"class.llvm::SmallVectorImpl.7", %"struct.llvm::SmallVectorStorage.10" }
%"class.llvm::SmallVectorImpl.7" = type { %"class.llvm::SmallVectorTemplateBase.8" }
%"class.llvm::SmallVectorTemplateBase.8" = type { %"class.llvm::SmallVectorTemplateCommon.9" }
%"class.llvm::SmallVectorTemplateCommon.9" = type { %"class.llvm::SmallVectorBase" }
%"struct.llvm::SmallVectorStorage.10" = type { [8 x i8] }
%"class.llvm::DwarfStringPool" = type <{ %"class.llvm::StringMap", %"class.llvm::StringRef", i64, i32, i8, [3 x i8] }>
%"class.llvm::StringMap" = type { %"class.llvm::StringMapImpl", %"class.llvm::detail::AllocatorHolder.11" }
%"class.llvm::StringMapImpl" = type { ptr, i32, i32, i32, i32 }
%"class.llvm::detail::AllocatorHolder.11" = type { ptr }
%"class.llvm::SmallVector.12" = type { %"class.llvm::SmallVectorImpl.13", %"struct.llvm::SmallVectorStorage.16" }
%"class.llvm::SmallVectorImpl.13" = type { %"class.llvm::SmallVectorTemplateBase.14" }
%"class.llvm::SmallVectorTemplateBase.14" = type { %"class.llvm::SmallVectorTemplateCommon.15" }
%"class.llvm::SmallVectorTemplateCommon.15" = type { %"class.llvm::SmallVectorBase" }
%"struct.llvm::SmallVectorStorage.16" = type { [64 x i8] }
%"class.llvm::DenseMap" = type <{ ptr, i32, i32, i32, [4 x i8] }>
%"class.llvm::DenseMap.17" = type <{ ptr, i32, i32, i32, [4 x i8] }>
%"class.llvm::DenseMap.20" = type <{ ptr, i32, i32, i32, [4 x i8] }>
%"class.llvm::DenseMap.23" = type <{ ptr, i32, i32, i32, [4 x i8] }>
%"class.llvm::DenseMap.26" = type <{ ptr, i32, i32, i32, [4 x i8] }>
%"class.llvm::DIEUnit" = type { ptr, %"class.llvm::DIE", ptr, i64 }
%"class.llvm::DIE" = type { %"struct.llvm::IntrusiveBackListNode", %"class.llvm::DIEValueList", i32, i32, i32, i16, i8, %"class.llvm::IntrusiveBackList.140", %"class.llvm::PointerUnion" }
%"struct.llvm::IntrusiveBackListNode" = type { %"class.llvm::PointerIntPair" }
%"class.llvm::PointerIntPair" = type { %"struct.llvm::detail::PunnedPointer" }
%"struct.llvm::detail::PunnedPointer" = type { [8 x i8] }
%"class.llvm::DIEValueList" = type { %"class.llvm::IntrusiveBackList" }
%"class.llvm::IntrusiveBackList" = type { %"struct.llvm::IntrusiveBackListBase" }
%"struct.llvm::IntrusiveBackListBase" = type { ptr }
%"class.llvm::IntrusiveBackList.140" = type { %"struct.llvm::IntrusiveBackListBase" }
%"class.llvm::PointerUnion" = type { %"class.llvm::pointer_union_detail::PointerUnionMembers" }
%"class.llvm::pointer_union_detail::PointerUnionMembers" = type { %"class.llvm::pointer_union_detail::PointerUnionMembers.141" }
%"class.llvm::pointer_union_detail::PointerUnionMembers.141" = type { %"class.llvm::pointer_union_detail::PointerUnionMembers.142" }
%"class.llvm::pointer_union_detail::PointerUnionMembers.142" = type { %"class.llvm::PointerIntPair.143" }
%"class.llvm::PointerIntPair.143" = type { %"struct.llvm::detail::PunnedPointer.144" }
%"struct.llvm::detail::PunnedPointer.144" = type { [8 x i8] }
%"struct.llvm::dwarf::FormParams" = type <{ i16, i8, i8, i8, i8 }>

; Function Attrs: mustprogress nounwind uwtable
define dso_local noundef i32 @_ZN4llvm9DwarfFile20computeSizeAndOffsetERNS_3DIEEj(ptr noundef nonnull align 8 dereferenceable(456) %0, ptr noundef nonnull align 8 dereferenceable(48) %1, i32 noundef %2) #0 align 2 {
  %4 = alloca ptr, align 8
  %5 = alloca ptr, align 8
  %6 = alloca i32, align 4
  %7 = alloca %"struct.llvm::dwarf::FormParams", align 2
  store ptr %0, ptr %4, align 8
  store ptr %1, ptr %5, align 8
  store i32 %2, ptr %6, align 4
  %8 = load ptr, ptr %4, align 8
  %9 = load ptr, ptr %5, align 8
  %10 = getelementptr inbounds nuw %"class.llvm::DwarfFile", ptr %8, i32 0, i32 0
  %11 = load ptr, ptr %10, align 8
  %12 = call i48 @_ZNK4llvm10AsmPrinter18getDwarfFormParamsEv(ptr noundef nonnull align 8 dereferenceable(785) %11)
  %13 = trunc i48 %12 to i40
  store i40 %13, ptr %7, align 2
  %14 = getelementptr inbounds nuw %"class.llvm::DwarfFile", ptr %8, i32 0, i32 2
  %15 = load i32, ptr %6, align 4
  %16 = call noundef i32 @_ZN4llvm3DIE24computeOffsetsAndAbbrevsERKNS_5dwarf10FormParamsERNS_12DIEAbbrevSetEj(ptr noundef nonnull align 8 dereferenceable(48) %9, ptr noundef nonnull align 2 dereferenceable(5) %7, ptr noundef nonnull align 8 dereferenceable(48) %14, i32 noundef %15)
  ret i32 %16
}

; Function Attrs: mustprogress nounwind uwtable
define linkonce_odr hidden noundef nonnull align 8 dereferenceable(48) ptr @_ZN4llvm7DIEUnit10getUnitDieEv(ptr noundef nonnull align 8 dereferenceable(72) %0) #0 comdat align 2 {
  %2 = alloca ptr, align 8
  store ptr %0, ptr %2, align 8
  %3 = load ptr, ptr %2, align 8
  %4 = getelementptr inbounds nuw %"class.llvm::DIEUnit", ptr %3, i32 0, i32 1
  ret ptr %4
}

; Function Attrs: mustprogress nounwind uwtable
define dso_local noundef i32 @_ZN4llvm9DwarfFile28computeSizeAndOffsetsForUnitEPNS_9DwarfUnitE(ptr noundef nonnull align 8 dereferenceable(456) %0, ptr noundef %1) #0 align 2 {
  %3 = alloca ptr, align 8
  %4 = alloca ptr, align 8
  %5 = alloca i32, align 4
  store ptr %0, ptr %3, align 8
  store ptr %1, ptr %4, align 8
  %6 = load ptr, ptr %3, align 8
  %7 = getelementptr inbounds nuw %"class.llvm::DwarfFile", ptr %6, i32 0, i32 0
  %8 = load ptr, ptr %7, align 8
  %9 = call noundef i32 @_ZNK4llvm10AsmPrinter26getUnitLengthFieldByteSizeEv(ptr noundef nonnull align 8 dereferenceable(785) %8)
  %10 = load ptr, ptr %4, align 8
  %11 = load ptr, ptr %10, align 8
  %12 = getelementptr inbounds ptr, ptr %11, i64 7
  %13 = load ptr, ptr %12, align 8
  %14 = call noundef i32 %13(ptr noundef nonnull align 8 dereferenceable(328) %10)
  %15 = add i32 %9, %14
  store i32 %15, ptr %5, align 4
  %16 = load ptr, ptr %4, align 8
  %17 = call noundef nonnull align 8 dereferenceable(48) ptr @_ZN4llvm7DIEUnit10getUnitDieEv(ptr noundef nonnull align 8 dereferenceable(72) %16)
  %18 = load i32, ptr %5, align 4
  %19 = call noundef i32 @_ZN4llvm9DwarfFile20computeSizeAndOffsetERNS_3DIEEj(ptr noundef nonnull align 8 dereferenceable(456) %6, ptr noundef nonnull align 8 dereferenceable(48) %17, i32 noundef %18)
  ret i32 %19
}