; Function Attrs: mustprogress nounwind uwtable
define dso_local noundef i32 @_ZN4llvm9DwarfFile28computeSizeAndOffsetsForUnitEPNS_9DwarfUnitE(ptr noundef nonnull align 8 dereferenceable(456) %0, ptr noundef %1) local_unnamed_addr #0 align 2 {
  %3 = alloca %"struct.llvm::dwarf::FormParams", align 8
  %4 = load ptr, ptr %0, align 8
  %5 = tail call noundef i32 @_ZNK4llvm10AsmPrinter26getUnitLengthFieldByteSizeEv(ptr noundef nonnull align 8 dereferenceable(785) %4) #13
  %6 = load ptr, ptr %1, align 8
  %7 = getelementptr inbounds nuw i8, ptr %6, i64 56
  %8 = load ptr, ptr %7, align 8
  %9 = tail call noundef i32 %8(ptr noundef nonnull align 8 dereferenceable(328) %1) #13
  %10 = add i32 %9, %5
  %11 = getelementptr inbounds nuw i8, ptr %1, i64 8
  call void @llvm.lifetime.start.p0(i64 6, ptr nonnull %3)
  %12 = load ptr, ptr %0, align 8
  %13 = tail call i48 @_ZNK4llvm10AsmPrinter18getDwarfFormParamsEv(ptr noundef nonnull align 8 dereferenceable(785) %12) #13
  %14 = trunc i48 %13 to i40
  store i40 %14, ptr %3, align 8
  %15 = getelementptr inbounds nuw i8, ptr %0, i64 104
  %16 = call noundef i32 @_ZN4llvm3DIE24computeOffsetsAndAbbrevsERKNS_5dwarf10FormParamsERNS_12DIEAbbrevSetEj(ptr noundef nonnull align 8 dereferenceable(48) %11, ptr noundef nonnull align 2 dereferenceable(5) %3, ptr noundef nonnull align 8 dereferenceable(48) %15, i32 noundef %10) #13
  call void @llvm.lifetime.end.p0(i64 6, ptr nonnull %3)
  ret i32 %16
}